; ModuleID = '24/89.c'
source_filename = "24/89.c"
target datalayout = "e-m:e-p270:32:32-p271:32:32-p272:64:64-i64:64-f80:128-n8:16:32:64-S128"
target triple = "x86_64-pc-linux-gnu"

@.str = private unnamed_addr constant [3 x i8] c"%c\00", align 1
@.str.1 = private unnamed_addr constant [2 x i8] c"\0A\00", align 1

; Function Attrs: noinline nounwind uwtable
define dso_local void @main() #0 {
  %1 = alloca i32, align 4
  %2 = alloca i32, align 4
  %3 = alloca i32, align 4
  %4 = alloca i32, align 4
  %5 = alloca i32, align 4
  %6 = alloca i32, align 4
  %7 = alloca i32, align 4
  %8 = alloca i32, align 4
  %9 = alloca [500 x i8], align 16
  %10 = alloca [50 x i32], align 16
  %11 = alloca [50 x i32], align 16
  store i32 0, i32* %1, align 4
  store i32 0, i32* %3, align 4
  store i32 0, i32* %4, align 4
  store i32 0, i32* %5, align 4
  store i32 20, i32* %6, align 4
  store i32 0, i32* %7, align 4
  store i32 0, i32* %8, align 4
  store i32 0, i32* %2, align 4
  br label %12

12:                                               ; preds = %19, %0
  %13 = load i32, i32* %2, align 4
  %14 = icmp slt i32 %13, 50
  br i1 %14, label %15, label %22

15:                                               ; preds = %12
  %16 = load i32, i32* %2, align 4
  %17 = sext i32 %16 to i64
  %18 = getelementptr inbounds [50 x i32], [50 x i32]* %10, i64 0, i64 %17
  store i32 1, i32* %18, align 4
  br label %19

19:                                               ; preds = %15
  %20 = load i32, i32* %2, align 4
  %21 = add nsw i32 %20, 1
  store i32 %21, i32* %2, align 4
  br label %12

22:                                               ; preds = %12
  %23 = getelementptr inbounds [500 x i8], [500 x i8]* %9, i64 0, i64 0
  %24 = call i32 (i8*, ...) bitcast (i32 (...)* @gets to i32 (i8*, ...)*)(i8* %23)
  store i32 0, i32* %2, align 4
  br label %25

25:                                               ; preds = %64, %22
  %26 = load i32, i32* %2, align 4
  %27 = sext i32 %26 to i64
  %28 = getelementptr inbounds [500 x i8], [500 x i8]* %9, i64 0, i64 %27
  %29 = load i8, i8* %28, align 1
  %30 = sext i8 %29 to i32
  %31 = icmp ne i32 %30, 0
  br i1 %31, label %32, label %67

32:                                               ; preds = %25
  %33 = load i32, i32* %2, align 4
  %34 = sext i32 %33 to i64
  %35 = getelementptr inbounds [500 x i8], [500 x i8]* %9, i64 0, i64 %34
  %36 = load i8, i8* %35, align 1
  %37 = sext i8 %36 to i32
  %38 = icmp eq i32 %37, 32
  br i1 %38, label %39, label %42

39:                                               ; preds = %32
  store i32 0, i32* %3, align 4
  %40 = load i32, i32* %1, align 4
  %41 = add nsw i32 %40, 1
  store i32 %41, i32* %1, align 4
  br label %63

42:                                               ; preds = %32
  %43 = load i32, i32* %3, align 4
  %44 = icmp eq i32 %43, 0
  br i1 %44, label %45, label %52

45:                                               ; preds = %42
  store i32 1, i32* %3, align 4
  %46 = load i32, i32* %4, align 4
  %47 = add nsw i32 %46, 1
  store i32 %47, i32* %4, align 4
  %48 = load i32, i32* %2, align 4
  %49 = load i32, i32* %1, align 4
  %50 = sext i32 %49 to i64
  %51 = getelementptr inbounds [50 x i32], [50 x i32]* %11, i64 0, i64 %50
  store i32 %48, i32* %51, align 4
  br label %62

52:                                               ; preds = %42
  %53 = load i32, i32* %3, align 4
  %54 = icmp ne i32 %53, 0
  br i1 %54, label %55, label %61

55:                                               ; preds = %52
  %56 = load i32, i32* %1, align 4
  %57 = sext i32 %56 to i64
  %58 = getelementptr inbounds [50 x i32], [50 x i32]* %10, i64 0, i64 %57
  %59 = load i32, i32* %58, align 4
  %60 = add nsw i32 %59, 1
  store i32 %60, i32* %58, align 4
  br label %61

61:                                               ; preds = %55, %52
  br label %62

62:                                               ; preds = %61, %45
  br label %63

63:                                               ; preds = %62, %39
  br label %64

64:                                               ; preds = %63
  %65 = load i32, i32* %2, align 4
  %66 = add nsw i32 %65, 1
  store i32 %66, i32* %2, align 4
  br label %25

67:                                               ; preds = %25
  store i32 0, i32* %2, align 4
  br label %68

68:                                               ; preds = %105, %67
  %69 = load i32, i32* %2, align 4
  %70 = load i32, i32* %4, align 4
  %71 = icmp slt i32 %69, %70
  br i1 %71, label %72, label %108

72:                                               ; preds = %68
  %73 = load i32, i32* %2, align 4
  %74 = sext i32 %73 to i64
  %75 = getelementptr inbounds [50 x i32], [50 x i32]* %10, i64 0, i64 %74
  %76 = load i32, i32* %75, align 4
  %77 = load i32, i32* %5, align 4
  %78 = icmp sgt i32 %76, %77
  br i1 %78, label %79, label %88

79:                                               ; preds = %72
  %80 = load i32, i32* %2, align 4
  %81 = sext i32 %80 to i64
  %82 = getelementptr inbounds [50 x i32], [50 x i32]* %10, i64 0, i64 %81
  %83 = load i32, i32* %82, align 4
  store i32 %83, i32* %5, align 4
  %84 = load i32, i32* %2, align 4
  %85 = sext i32 %84 to i64
  %86 = getelementptr inbounds [50 x i32], [50 x i32]* %11, i64 0, i64 %85
  %87 = load i32, i32* %86, align 4
  store i32 %87, i32* %7, align 4
  br label %88

88:                                               ; preds = %79, %72
  %89 = load i32, i32* %2, align 4
  %90 = sext i32 %89 to i64
  %91 = getelementptr inbounds [50 x i32], [50 x i32]* %10, i64 0, i64 %90
  %92 = load i32, i32* %91, align 4
  %93 = load i32, i32* %6, align 4
  %94 = icmp slt i32 %92, %93
  br i1 %94, label %95, label %104

95:                                               ; preds = %88
  %96 = load i32, i32* %2, align 4
  %97 = sext i32 %96 to i64
  %98 = getelementptr inbounds [50 x i32], [50 x i32]* %10, i64 0, i64 %97
  %99 = load i32, i32* %98, align 4
  store i32 %99, i32* %6, align 4
  %100 = load i32, i32* %2, align 4
  %101 = sext i32 %100 to i64
  %102 = getelementptr inbounds [50 x i32], [50 x i32]* %11, i64 0, i64 %101
  %103 = load i32, i32* %102, align 4
  store i32 %103, i32* %8, align 4
  br label %104

104:                                              ; preds = %95, %88
  br label %105

105:                                              ; preds = %104
  %106 = load i32, i32* %2, align 4
  %107 = add nsw i32 %106, 1
  store i32 %107, i32* %2, align 4
  br label %68

108:                                              ; preds = %68
  %109 = load i32, i32* %7, align 4
  store i32 %109, i32* %2, align 4
  br label %110

110:                                              ; preds = %123, %108
  %111 = load i32, i32* %2, align 4
  %112 = load i32, i32* %7, align 4
  %113 = load i32, i32* %5, align 4
  %114 = add nsw i32 %112, %113
  %115 = icmp slt i32 %111, %114
  br i1 %115, label %116, label %126

116:                                              ; preds = %110
  %117 = load i32, i32* %2, align 4
  %118 = sext i32 %117 to i64
  %119 = getelementptr inbounds [500 x i8], [500 x i8]* %9, i64 0, i64 %118
  %120 = load i8, i8* %119, align 1
  %121 = sext i8 %120 to i32
  %122 = call i32 (i8*, ...) @printf(i8* getelementptr inbounds ([3 x i8], [3 x i8]* @.str, i64 0, i64 0), i32 %121)
  br label %123

123:                                              ; preds = %116
  %124 = load i32, i32* %2, align 4
  %125 = add nsw i32 %124, 1
  store i32 %125, i32* %2, align 4
  br label %110

126:                                              ; preds = %110
  %127 = call i32 (i8*, ...) @printf(i8* getelementptr inbounds ([2 x i8], [2 x i8]* @.str.1, i64 0, i64 0))
  %128 = load i32, i32* %8, align 4
  store i32 %128, i32* %2, align 4
  br label %129

129:                                              ; preds = %142, %126
  %130 = load i32, i32* %2, align 4
  %131 = load i32, i32* %8, align 4
  %132 = load i32, i32* %6, align 4
  %133 = add nsw i32 %131, %132
  %134 = icmp slt i32 %130, %133
  br i1 %134, label %135, label %145

135:                                              ; preds = %129
  %136 = load i32, i32* %2, align 4
  %137 = sext i32 %136 to i64
  %138 = getelementptr inbounds [500 x i8], [500 x i8]* %9, i64 0, i64 %137
  %139 = load i8, i8* %138, align 1
  %140 = sext i8 %139 to i32
  %141 = call i32 (i8*, ...) @printf(i8* getelementptr inbounds ([3 x i8], [3 x i8]* @.str, i64 0, i64 0), i32 %140)
  br label %142

142:                                              ; preds = %135
  %143 = load i32, i32* %2, align 4
  %144 = add nsw i32 %143, 1
  store i32 %144, i32* %2, align 4
  br label %129

145:                                              ; preds = %129
  %146 = call i32 (i8*, ...) @printf(i8* getelementptr inbounds ([2 x i8], [2 x i8]* @.str.1, i64 0, i64 0))
  ret void
}

declare dso_local i32 @gets(...) #1

declare dso_local i32 @printf(i8*, ...) #1


!llvm.module.flags = !{!0}
!llvm.ident = !{!1}

!0 = !{i32 1, !"wchar_size", i32 4}
!1 = !{!"clang version 10.0.0-4ubuntu1 "}
